; Function Attrs: mustprogress nounwind uwtable
define internal fastcc void @_ZNSt8_Rb_treeIPKN5osgeo4proj16GenericShiftGridESt4pairIKS4_St10unique_ptrIN12_GLOBAL__N_14GridESt14default_deleteIS9_EEESt10_Select1stISD_ESt4lessIS4_ESaISD_EE8_M_eraseEPSt13_Rb_tree_nodeISD_E(ptr noundef %0) unnamed_addr #0 align 2 personality ptr @__gxx_personality_v0 {
  %.not7 = icmp eq ptr %0, null
  br i1 %.not7, label %._crit_edge, label %.lr.ph

.lr.ph:                                           ; preds = %1, %_ZNSt8_Rb_treeIPKN5osgeo4proj16GenericShiftGridESt4pairIKS4_St10unique_ptrIN12_GLOBAL__N_14GridESt14default_deleteIS9_EEESt10_Select1stISD_ESt4lessIS4_ESaISD_EE12_M_drop_nodeEPSt13_Rb_tree_nodeISD_E.exit
  %.08 = phi ptr [ %.0.val6, %_ZNSt8_Rb_treeIPKN5osgeo4proj16GenericShiftGridESt4pairIKS4_St10unique_ptrIN12_GLOBAL__N_14GridESt14default_deleteIS9_EEESt10_Select1stISD_ESt4lessIS4_ESaISD_EE12_M_drop_nodeEPSt13_Rb_tree_nodeISD_E.exit ], [ %0, %1 ]
  %2 = getelementptr i8, ptr %.08, i64 24
  %.0.val = load ptr, ptr %2, align 8
  tail call fastcc void @_ZNSt8_Rb_treeIPKN5osgeo4proj16GenericShiftGridESt4pairIKS4_St10unique_ptrIN12_GLOBAL__N_14GridESt14default_deleteIS9_EEESt10_Select1stISD_ESt4lessIS4_ESaISD_EE8_M_eraseEPSt13_Rb_tree_nodeISD_E(ptr noundef %.0.val)
  %3 = getelementptr i8, ptr %.08, i64 16
  %.0.val6 = load ptr, ptr %3, align 8
  %4 = getelementptr inbounds i8, ptr %.08, i64 40
  %5 = load ptr, ptr %4, align 8
  %.not.i.i.i.i.i.i = icmp eq ptr %5, null
  br i1 %.not.i.i.i.i.i.i, label %_ZNSt8_Rb_treeIPKN5osgeo4proj16GenericShiftGridESt4pairIKS4_St10unique_ptrIN12_GLOBAL__N_14GridESt14default_deleteIS9_EEESt10_Select1stISD_ESt4lessIS4_ESaISD_EE12_M_drop_nodeEPSt13_Rb_tree_nodeISD_E.exit, label %_ZNKSt14default_deleteIN12_GLOBAL__N_14GridEEclEPS1_.exit.i.i.i.i.i.i

_ZNKSt14default_deleteIN12_GLOBAL__N_14GridEEclEPS1_.exit.i.i.i.i.i.i: ; preds = %.lr.ph
  tail call void @_ZdlPv(ptr noundef nonnull %5) #34
  br label %_ZNSt8_Rb_treeIPKN5osgeo4proj16GenericShiftGridESt4pairIKS4_St10unique_ptrIN12_GLOBAL__N_14GridESt14default_deleteIS9_EEESt10_Select1stISD_ESt4lessIS4_ESaISD_EE12_M_drop_nodeEPSt13_Rb_tree_nodeISD_E.exit

_ZNSt8_Rb_treeIPKN5osgeo4proj16GenericShiftGridESt4pairIKS4_St10unique_ptrIN12_GLOBAL__N_14GridESt14default_deleteIS9_EEESt10_Select1stISD_ESt4lessIS4_ESaISD_EE12_M_drop_nodeEPSt13_Rb_tree_nodeISD_E.exit: ; preds = %.lr.ph, %_ZNKSt14default_deleteIN12_GLOBAL__N_14GridEEclEPS1_.exit.i.i.i.i.i.i
  tail call void @_ZdlPv(ptr noundef nonnull %.08) #34
  %.not = icmp eq ptr %.0.val6, null
  br i1 %.not, label %._crit_edge, label %.lr.ph, !llvm.loop !97

._crit_edge:                                      ; preds = %_ZNSt8_Rb_treeIPKN5osgeo4proj16GenericShiftGridESt4pairIKS4_St10unique_ptrIN12_GLOBAL__N_14GridESt14default_deleteIS9_EEESt10_Select1stISD_ESt4lessIS4_ESaISD_EE12_M_drop_nodeEPSt13_Rb_tree_nodeISD_E.exit, %1
  ret void
}